; Function Attrs: mustprogress uwtable
define void @_ZN7rocksdb13SstFileReaderC2ERKNS_7OptionsE(ptr noundef nonnull writeonly align 8 captures(none) dereferenceable(8) %0, ptr noundef nonnull align 8 dereferenceable(1544) %1) unnamed_addr #4 align 2 personality ptr @__gxx_personality_v0 {
  %3 = tail call noalias noundef nonnull dereferenceable(3232) ptr @_Znwm(i64 noundef 3232) #23
  invoke void @_ZN7rocksdb13SstFileReader3RepC2ERKNS_7OptionsE(ptr noundef nonnull align 8 dereferenceable(3232) %3, ptr noundef nonnull align 8 dereferenceable(1544) %1)
          to label %4 unwind label %5

4:                                                ; preds = %2
  store ptr %3, ptr %0, align 8, !tbaa !18
  ret void

5:                                                ; preds = %2
  %6 = landingpad { ptr, i32 }
          cleanup
  tail call void @_ZdlPvm(ptr noundef nonnull %3, i64 noundef 3232) #22
  resume { ptr, i32 } %6
}